target datalayout = "e-m:e-p270:32:32-p271:32:32-p272:64:64-i64:64-i128:128-f80:128-n8:16:32:64-S128"
target triple = "x86_64-pc-linux-gnu"

%struct.dt_pthread_mutex_t = type { %union.pthread_mutex_t }
%union.pthread_mutex_t = type { %struct.__pthread_mutex_s }
%struct.__pthread_mutex_s = type { i32, i32, i32, i32, i32, i16, i16, %struct.__pthread_internal_list }
%struct.__pthread_internal_list = type { ptr, ptr }
%struct.dt_develop_t = type { i32, i32, i32, ptr, double, double, i32, i32, i32, i32, i32, double, i32, i32, i32, ptr, ptr, [8 x i8], %struct.dt_image_t, i32, i32, %struct.dt_pthread_mutex_t, i32, ptr, i32, ptr, i32, ptr, ptr, i32, ptr, ptr, ptr, ptr, i32, i32, ptr, ptr, ptr, ptr, i32, i32, i32, float, float, ptr, i32, %struct.anon.5, %struct.dt_dev_chroma_t, %struct.anon.8, %struct.anon.9, %struct.anon.10, %struct.anon.11, %struct.anon.12, %struct.anon.13, ptr, ptr, %struct.dt_dev_viewport_t, %struct.dt_dev_viewport_t, i32, i32, i32, ptr, [8 x i8] }
%struct.dt_image_t = type { i32, i32, float, float, float, float, float, float, float, [64 x i8], [64 x i8], [128 x i8], [64 x i8], [64 x i8], [64 x i8], [64 x i8], i64, i32, %union.dt_image_correction_data_t, [64 x i8], [64 x i8], [64 x i8], [128 x i8], i32, [256 x i8], i32, i32, i32, i32, i32, i32, i32, i32, i32, i32, float, i32, i32, i32, i32, i32, i32, i64, i64, i64, i64, i32, [12 x i8], %struct.dt_iop_buffer_dsc_t, [9 x float], ptr, i32, i32, %struct.dt_image_raw_parameters_t, %struct.dt_image_geoloc_t, %struct._color_harmony_t, i16, [4 x i16], i32, i32, float, float, [4 x float], [4 x [3 x float]], [4 x float], ptr, ptr, i32, i32, [8 x i8] }
%union.dt_image_correction_data_t = type { %struct.anon.0 }
%struct.anon.0 = type { i32, float, [11 x float], [11 x float], [11 x float], [11 x float], [11 x float] }
%struct.dt_iop_buffer_dsc_t = type { i32, i32, i32, [6 x [6 x i8]], %struct.anon.3, [12 x i8], %struct.anon.4, [4 x float], i32, [12 x i8] }
%struct.anon.3 = type { i16, i16 }
%struct.anon.4 = type { i32, [12 x i8], [4 x float] }
%struct.dt_image_raw_parameters_t = type { i32 }
%struct.dt_image_geoloc_t = type { double, double, double }
%struct._color_harmony_t = type { i32, i32, i32 }
%struct.anon.5 = type { %struct.dt_dev_proxy_exposure_t, ptr, %struct.anon.6, %struct.anon.7 }
%struct.dt_dev_proxy_exposure_t = type { ptr, ptr, ptr, ptr }
%struct.anon.6 = type { ptr, ptr, ptr, ptr, ptr, ptr, ptr, ptr, ptr }
%struct.anon.7 = type { ptr, ptr, ptr, ptr, ptr }
%struct.dt_dev_chroma_t = type { ptr, ptr, [4 x double], [4 x double], [4 x double], i32 }
%struct.anon.8 = type { ptr, ptr, ptr }
%struct.anon.9 = type { ptr, ptr, i32, i32, float, float, i32 }
%struct.anon.10 = type { ptr, ptr, i32, i32, i32, float }
%struct.anon.11 = type { ptr }
%struct.anon.12 = type { ptr, i32 }
%struct.anon.13 = type { ptr, ptr, ptr }
%struct.dt_dev_viewport_t = type { ptr, i32, i32, i32, i32, i32, double, double, double, i32, i32, i32, float, float, float, ptr }
%struct.dt_dev_pixelpipe_t = type { %struct.dt_dev_pixelpipe_cache_t, i32, i64, ptr, i32, i32, float, i32, i32, [12 x i8], %struct.dt_iop_buffer_dsc_t, ptr, ptr, ptr, ptr, i32, i32, i32, i32, ptr, i64, i32, i32, float, float, float, i64, %struct.dt_pthread_mutex_t, %struct.dt_pthread_mutex_t, %struct.dt_pthread_mutex_t, i32, i32, i32, %struct.dt_dev_detail_mask_t, i32, i32, i32, i32, i32, i32, i32, i32, i32, i32, i32, i32, i32, i32, [8 x i8], %struct.dt_image_t, i32, ptr, i32, ptr, ptr, ptr, i32, ptr, i64, [8 x i8] }
%struct.dt_dev_pixelpipe_cache_t = type { i32, i64, i64, ptr, ptr, ptr, ptr, ptr, ptr, i64, i32, i64, i64, i32, i32, i32 }
%struct.dt_dev_detail_mask_t = type { %struct.dt_iop_roi_t, i64, ptr }
%struct.dt_iop_roi_t = type { i32, i32, i32, i32, float }

; Function Attrs: nounwind uwtable
define void @dt_color_picker_backtransform_box(ptr noundef %0, i32 noundef %1, ptr noundef %2, ptr noundef %3) #0 {
  %5 = alloca ptr, align 8
  %6 = alloca i32, align 4
  %7 = alloca ptr, align 8
  %8 = alloca ptr, align 8
  %9 = alloca float, align 4
  %10 = alloca float, align 4
  %11 = alloca float, align 4
  %12 = alloca float, align 4
  %13 = alloca i32, align 4
  %14 = alloca i32, align 4
  %15 = alloca i32, align 4
  store ptr %0, ptr %5, align 8, !tbaa !6
  store i32 %1, ptr %6, align 4, !tbaa !11
  store ptr %2, ptr %7, align 8, !tbaa !13
  store ptr %3, ptr %8, align 8, !tbaa !13
  call void @llvm.lifetime.start.p0(i64 4, ptr %9) #10
  %16 = load ptr, ptr %5, align 8, !tbaa !6
  %17 = getelementptr inbounds nuw %struct.dt_develop_t, ptr %16, i32 0, i32 16
  %18 = load ptr, ptr %17, align 16, !tbaa !15
  %19 = getelementptr inbounds nuw %struct.dt_dev_pixelpipe_t, ptr %18, i32 0, i32 4
  %20 = load i32, ptr %19, align 16, !tbaa !51
  %21 = icmp sgt i32 1, %20
  br i1 %21, label %22, label %23

22:                                               ; preds = %4
  br label %29

23:                                               ; preds = %4
  %24 = load ptr, ptr %5, align 8, !tbaa !6
  %25 = getelementptr inbounds nuw %struct.dt_develop_t, ptr %24, i32 0, i32 16
  %26 = load ptr, ptr %25, align 16, !tbaa !15
  %27 = getelementptr inbounds nuw %struct.dt_dev_pixelpipe_t, ptr %26, i32 0, i32 4
  %28 = load i32, ptr %27, align 16, !tbaa !51
  br label %29

29:                                               ; preds = %23, %22
  %30 = phi i32 [ 1, %22 ], [ %28, %23 ]
  %31 = sitofp i32 %30 to float
  store float %31, ptr %9, align 4, !tbaa !59
  call void @llvm.lifetime.start.p0(i64 4, ptr %10) #10
  %32 = load ptr, ptr %5, align 8, !tbaa !6
  %33 = getelementptr inbounds nuw %struct.dt_develop_t, ptr %32, i32 0, i32 16
  %34 = load ptr, ptr %33, align 16, !tbaa !15
  %35 = getelementptr inbounds nuw %struct.dt_dev_pixelpipe_t, ptr %34, i32 0, i32 5
  %36 = load i32, ptr %35, align 4, !tbaa !60
  %37 = icmp sgt i32 1, %36
  br i1 %37, label %38, label %39

38:                                               ; preds = %29
  br label %45

39:                                               ; preds = %29
  %40 = load ptr, ptr %5, align 8, !tbaa !6
  %41 = getelementptr inbounds nuw %struct.dt_develop_t, ptr %40, i32 0, i32 16
  %42 = load ptr, ptr %41, align 16, !tbaa !15
  %43 = getelementptr inbounds nuw %struct.dt_dev_pixelpipe_t, ptr %42, i32 0, i32 5
  %44 = load i32, ptr %43, align 4, !tbaa !60
  br label %45

45:                                               ; preds = %39, %38
  %46 = phi i32 [ 1, %38 ], [ %44, %39 ]
  %47 = sitofp i32 %46 to float
  store float %47, ptr %10, align 4, !tbaa !59
  call void @llvm.lifetime.start.p0(i64 4, ptr %11) #10
  %48 = load ptr, ptr %5, align 8, !tbaa !6
  %49 = getelementptr inbounds nuw %struct.dt_develop_t, ptr %48, i32 0, i32 16
  %50 = load ptr, ptr %49, align 16, !tbaa !15
  %51 = getelementptr inbounds nuw %struct.dt_dev_pixelpipe_t, ptr %50, i32 0, i32 7
  %52 = load i32, ptr %51, align 4, !tbaa !61
  %53 = icmp sgt i32 1, %52
  br i1 %53, label %54, label %55

54:                                               ; preds = %45
  br label %61

55:                                               ; preds = %45
  %56 = load ptr, ptr %5, align 8, !tbaa !6
  %57 = getelementptr inbounds nuw %struct.dt_develop_t, ptr %56, i32 0, i32 16
  %58 = load ptr, ptr %57, align 16, !tbaa !15
  %59 = getelementptr inbounds nuw %struct.dt_dev_pixelpipe_t, ptr %58, i32 0, i32 7
  %60 = load i32, ptr %59, align 4, !tbaa !61
  br label %61

61:                                               ; preds = %55, %54
  %62 = phi i32 [ 1, %54 ], [ %60, %55 ]
  %63 = sitofp i32 %62 to float
  store float %63, ptr %11, align 4, !tbaa !59
  call void @llvm.lifetime.start.p0(i64 4, ptr %12) #10
  %64 = load ptr, ptr %5, align 8, !tbaa !6
  %65 = getelementptr inbounds nuw %struct.dt_develop_t, ptr %64, i32 0, i32 16
  %66 = load ptr, ptr %65, align 16, !tbaa !15
  %67 = getelementptr inbounds nuw %struct.dt_dev_pixelpipe_t, ptr %66, i32 0, i32 8
  %68 = load i32, ptr %67, align 16, !tbaa !62
  %69 = icmp sgt i32 1, %68
  br i1 %69, label %70, label %71

70:                                               ; preds = %61
  br label %77

71:                                               ; preds = %61
  %72 = load ptr, ptr %5, align 8, !tbaa !6
  %73 = getelementptr inbounds nuw %struct.dt_develop_t, ptr %72, i32 0, i32 16
  %74 = load ptr, ptr %73, align 16, !tbaa !15
  %75 = getelementptr inbounds nuw %struct.dt_dev_pixelpipe_t, ptr %74, i32 0, i32 8
  %76 = load i32, ptr %75, align 16, !tbaa !62
  br label %77

77:                                               ; preds = %71, %70
  %78 = phi i32 [ 1, %70 ], [ %76, %71 ]
  %79 = sitofp i32 %78 to float
  store float %79, ptr %12, align 4, !tbaa !59
  call void @llvm.lifetime.start.p0(i64 4, ptr %13) #10
  %80 = load i32, ptr %6, align 4, !tbaa !11
  %81 = icmp eq i32 %80, 2
  %82 = select i1 %81, i32 4, i32 1
  store i32 %82, ptr %13, align 4, !tbaa !11
  call void @llvm.lifetime.start.p0(i64 4, ptr %14) #10
  store i32 0, ptr %14, align 4, !tbaa !11
  br label %83

83:                                               ; preds = %121, %77
  %84 = load i32, ptr %14, align 4, !tbaa !11
  %85 = load i32, ptr %13, align 4, !tbaa !11
  %86 = icmp slt i32 %84, %85
  br i1 %86, label %88, label %87

87:                                               ; preds = %83
  call void @llvm.lifetime.end.p0(i64 4, ptr %14) #10
  br label %124

88:                                               ; preds = %83
  %89 = load float, ptr %11, align 4, !tbaa !59
  %90 = load ptr, ptr %7, align 8, !tbaa !13
  %91 = load i32, ptr %14, align 4, !tbaa !11
  %92 = srem i32 %91, 3
  %93 = icmp sgt i32 %92, 0
  %94 = zext i1 %93 to i32
  %95 = mul nsw i32 %94, 2
  %96 = sext i32 %95 to i64
  %97 = getelementptr inbounds float, ptr %90, i64 %96
  %98 = load float, ptr %97, align 4, !tbaa !59
  %99 = fmul reassoc nsz arcp contract afn float %89, %98
  %100 = load ptr, ptr %8, align 8, !tbaa !13
  %101 = load i32, ptr %14, align 4, !tbaa !11
  %102 = mul nsw i32 %101, 2
  %103 = sext i32 %102 to i64
  %104 = getelementptr inbounds float, ptr %100, i64 %103
  store float %99, ptr %104, align 4, !tbaa !59
  %105 = load float, ptr %12, align 4, !tbaa !59
  %106 = load ptr, ptr %7, align 8, !tbaa !13
  %107 = load i32, ptr %14, align 4, !tbaa !11
  %108 = srem i32 %107, 2
  %109 = mul nsw i32 %108, 2
  %110 = add nsw i32 %109, 1
  %111 = sext i32 %110 to i64
  %112 = getelementptr inbounds float, ptr %106, i64 %111
  %113 = load float, ptr %112, align 4, !tbaa !59
  %114 = fmul reassoc nsz arcp contract afn float %105, %113
  %115 = load ptr, ptr %8, align 8, !tbaa !13
  %116 = load i32, ptr %14, align 4, !tbaa !11
  %117 = mul nsw i32 %116, 2
  %118 = add nsw i32 %117, 1
  %119 = sext i32 %118 to i64
  %120 = getelementptr inbounds float, ptr %115, i64 %119
  store float %114, ptr %120, align 4, !tbaa !59
  br label %121

121:                                              ; preds = %88
  %122 = load i32, ptr %14, align 4, !tbaa !11
  %123 = add nsw i32 %122, 1
  store i32 %123, ptr %14, align 4, !tbaa !11
  br label %83

124:                                              ; preds = %87
  %125 = load ptr, ptr %5, align 8, !tbaa !6
  %126 = load ptr, ptr %8, align 8, !tbaa !13
  %127 = load i32, ptr %13, align 4, !tbaa !11
  %128 = sext i32 %127 to i64
  %129 = call i32 @dt_dev_distort_backtransform(ptr noundef %125, ptr noundef %126, i64 noundef %128)
  call void @llvm.lifetime.start.p0(i64 4, ptr %15) #10
  store i32 0, ptr %15, align 4, !tbaa !11
  br label %130

130:                                              ; preds = %218, %124
  %131 = load i32, ptr %15, align 4, !tbaa !11
  %132 = load i32, ptr %13, align 4, !tbaa !11
  %133 = icmp slt i32 %131, %132
  br i1 %133, label %135, label %134

134:                                              ; preds = %130
  call void @llvm.lifetime.end.p0(i64 4, ptr %15) #10
  br label %221

135:                                              ; preds = %130
  %136 = load ptr, ptr %8, align 8, !tbaa !13
  %137 = load i32, ptr %15, align 4, !tbaa !11
  %138 = mul nsw i32 %137, 2
  %139 = sext i32 %138 to i64
  %140 = getelementptr inbounds float, ptr %136, i64 %139
  %141 = load float, ptr %140, align 4, !tbaa !59
  %142 = load float, ptr %9, align 4, !tbaa !59
  %143 = fdiv reassoc nsz arcp contract afn float %141, %142
  %144 = fcmp reassoc nsz arcp contract afn oge float %143, 0.000000e+00
  br i1 %144, label %145, label %167

145:                                              ; preds = %135
  %146 = load ptr, ptr %8, align 8, !tbaa !13
  %147 = load i32, ptr %15, align 4, !tbaa !11
  %148 = mul nsw i32 %147, 2
  %149 = sext i32 %148 to i64
  %150 = getelementptr inbounds float, ptr %146, i64 %149
  %151 = load float, ptr %150, align 4, !tbaa !59
  %152 = load float, ptr %9, align 4, !tbaa !59
  %153 = fdiv reassoc nsz arcp contract afn float %151, %152
  %154 = fcmp reassoc nsz arcp contract afn ole float %153, 1.000000e+00
  br i1 %154, label %155, label %164

155:                                              ; preds = %145
  %156 = load ptr, ptr %8, align 8, !tbaa !13
  %157 = load i32, ptr %15, align 4, !tbaa !11
  %158 = mul nsw i32 %157, 2
  %159 = sext i32 %158 to i64
  %160 = getelementptr inbounds float, ptr %156, i64 %159
  %161 = load float, ptr %160, align 4, !tbaa !59
  %162 = load float, ptr %9, align 4, !tbaa !59
  %163 = fdiv reassoc nsz arcp contract afn float %161, %162
  br label %165

164:                                              ; preds = %145
  br label %165

165:                                              ; preds = %164, %155
  %166 = phi reassoc nsz arcp contract afn float [ %163, %155 ], [ 1.000000e+00, %164 ]
  br label %168

167:                                              ; preds = %135
  br label %168

168:                                              ; preds = %167, %165
  %169 = phi reassoc nsz arcp contract afn float [ %166, %165 ], [ 0.000000e+00, %167 ]
  %170 = load ptr, ptr %8, align 8, !tbaa !13
  %171 = load i32, ptr %15, align 4, !tbaa !11
  %172 = mul nsw i32 %171, 2
  %173 = sext i32 %172 to i64
  %174 = getelementptr inbounds float, ptr %170, i64 %173
  store float %169, ptr %174, align 4, !tbaa !59
  %175 = load ptr, ptr %8, align 8, !tbaa !13
  %176 = load i32, ptr %15, align 4, !tbaa !11
  %177 = mul nsw i32 %176, 2
  %178 = add nsw i32 %177, 1
  %179 = sext i32 %178 to i64
  %180 = getelementptr inbounds float, ptr %175, i64 %179
  %181 = load float, ptr %180, align 4, !tbaa !59
  %182 = load float, ptr %10, align 4, !tbaa !59
  %183 = fdiv reassoc nsz arcp contract afn float %181, %182
  %184 = fcmp reassoc nsz arcp contract afn oge float %183, 0.000000e+00
  br i1 %184, label %185, label %209

185:                                              ; preds = %168
  %186 = load ptr, ptr %8, align 8, !tbaa !13
  %187 = load i32, ptr %15, align 4, !tbaa !11
  %188 = mul nsw i32 %187, 2
  %189 = add nsw i32 %188, 1
  %190 = sext i32 %189 to i64
  %191 = getelementptr inbounds float, ptr %186, i64 %190
  %192 = load float, ptr %191, align 4, !tbaa !59
  %193 = load float, ptr %10, align 4, !tbaa !59
  %194 = fdiv reassoc nsz arcp contract afn float %192, %193
  %195 = fcmp reassoc nsz arcp contract afn ole float %194, 1.000000e+00
  br i1 %195, label %196, label %206

196:                                              ; preds = %185
  %197 = load ptr, ptr %8, align 8, !tbaa !13
  %198 = load i32, ptr %15, align 4, !tbaa !11
  %199 = mul nsw i32 %198, 2
  %200 = add nsw i32 %199, 1
  %201 = sext i32 %200 to i64
  %202 = getelementptr inbounds float, ptr %197, i64 %201
  %203 = load float, ptr %202, align 4, !tbaa !59
  %204 = load float, ptr %10, align 4, !tbaa !59
  %205 = fdiv reassoc nsz arcp contract afn float %203, %204
  br label %207

206:                                              ; preds = %185
  br label %207

207:                                              ; preds = %206, %196
  %208 = phi reassoc nsz arcp contract afn float [ %205, %196 ], [ 1.000000e+00, %206 ]
  br label %210

209:                                              ; preds = %168
  br label %210

210:                                              ; preds = %209, %207
  %211 = phi reassoc nsz arcp contract afn float [ %208, %207 ], [ 0.000000e+00, %209 ]
  %212 = load ptr, ptr %8, align 8, !tbaa !13
  %213 = load i32, ptr %15, align 4, !tbaa !11
  %214 = mul nsw i32 %213, 2
  %215 = add nsw i32 %214, 1
  %216 = sext i32 %215 to i64
  %217 = getelementptr inbounds float, ptr %212, i64 %216
  store float %211, ptr %217, align 4, !tbaa !59
  br label %218

218:                                              ; preds = %210
  %219 = load i32, ptr %15, align 4, !tbaa !11
  %220 = add nsw i32 %219, 1
  store i32 %220, ptr %15, align 4, !tbaa !11
  br label %130

221:                                              ; preds = %134
  call void @llvm.lifetime.end.p0(i64 4, ptr %13) #10
  call void @llvm.lifetime.end.p0(i64 4, ptr %12) #10
  call void @llvm.lifetime.end.p0(i64 4, ptr %11) #10
  call void @llvm.lifetime.end.p0(i64 4, ptr %10) #10
  call void @llvm.lifetime.end.p0(i64 4, ptr %9) #10
  ret void
}