; Function Attrs: nounwind uwtable
define void @dt_color_picker_backtransform_box(ptr noundef %0, i32 noundef %1, ptr noundef readonly captures(none) %2, ptr noundef %3) local_unnamed_addr #0 {
  %5 = getelementptr inbounds nuw i8, ptr %0, i64 96
  %6 = load ptr, ptr %5, align 16, !tbaa !6
  %7 = getelementptr inbounds nuw i8, ptr %6, i64 144
  %8 = load i32, ptr %7, align 16, !tbaa !46
  %spec.select57 = tail call i32 @llvm.smax.i32(i32 %8, i32 1)
  %9 = getelementptr inbounds nuw i8, ptr %6, i64 148
  %10 = load i32, ptr %9, align 4, !tbaa !55
  %11 = tail call i32 @llvm.smax.i32(i32 %10, i32 1)
  %12 = getelementptr inbounds nuw i8, ptr %6, i64 156
  %13 = load i32, ptr %12, align 4, !tbaa !56
  %14 = tail call i32 @llvm.smax.i32(i32 %13, i32 1)
  %15 = uitofp nneg i32 %14 to float
  %16 = getelementptr inbounds nuw i8, ptr %6, i64 160
  %17 = load i32, ptr %16, align 16, !tbaa !57
  %18 = tail call i32 @llvm.smax.i32(i32 %17, i32 1)
  %19 = uitofp nneg i32 %18 to float
  %20 = icmp eq i32 %1, 2
  %wide.trip.count = select i1 %20, i64 4, i64 1
  br label %26

21:                                               ; preds = %26
  %spec.select = uitofp nneg i32 %spec.select57 to float
  %22 = uitofp nneg i32 %11 to float
  %23 = tail call i32 @dt_dev_distort_backtransform(ptr noundef %0, ptr noundef nonnull %3, i64 noundef %wide.trip.count) #14
  %24 = fdiv reassoc nsz arcp contract afn float 1.000000e+00, %spec.select
  %25 = fdiv reassoc nsz arcp contract afn float 1.000000e+00, %22
  br label %43

26:                                               ; preds = %4, %26
  %indvars.iv = phi i64 [ 0, %4 ], [ %indvars.iv.next, %26 ]
  %27 = trunc nuw nsw i64 %indvars.iv to i32
  %28 = urem i32 %27, 3
  %.not = icmp eq i32 %28, 0
  %29 = select i1 %.not, i64 0, i64 2
  %30 = getelementptr inbounds nuw float, ptr %2, i64 %29
  %31 = load float, ptr %30, align 4, !tbaa !58
  %32 = fmul reassoc nsz arcp contract afn float %31, %15
  %33 = shl nuw nsw i64 %indvars.iv, 1
  %34 = getelementptr inbounds nuw float, ptr %3, i64 %33
  store float %32, ptr %34, align 4, !tbaa !58
  %35 = and i64 %33, 2
  %36 = or disjoint i64 %35, 1
  %37 = getelementptr inbounds nuw float, ptr %2, i64 %36
  %38 = load float, ptr %37, align 4, !tbaa !58
  %39 = fmul reassoc nsz arcp contract afn float %38, %19
  %40 = or disjoint i64 %33, 1
  %41 = getelementptr inbounds nuw float, ptr %3, i64 %40
  store float %39, ptr %41, align 4, !tbaa !58
  %indvars.iv.next = add nuw nsw i64 %indvars.iv, 1
  %exitcond.not = icmp eq i64 %indvars.iv.next, %wide.trip.count
  br i1 %exitcond.not, label %21, label %26

42:                                               ; preds = %62
  ret void

43:                                               ; preds = %21, %62
  %indvars.iv61 = phi i64 [ 0, %21 ], [ %indvars.iv.next62, %62 ]
  %44 = shl nuw nsw i64 %indvars.iv61, 1
  %45 = getelementptr inbounds nuw float, ptr %3, i64 %44
  %46 = load float, ptr %45, align 4, !tbaa !58
  %47 = fmul reassoc nsz arcp contract afn float %46, %24
  %48 = fcmp reassoc nsz arcp contract afn ult float %47, 0.000000e+00
  br i1 %48, label %52, label %49

49:                                               ; preds = %43
  %50 = fcmp reassoc nsz arcp contract afn ugt float %47, 1.000000e+00
  br i1 %50, label %52, label %51

51:                                               ; preds = %49
  br label %52

52:                                               ; preds = %43, %51, %49
  %53 = phi reassoc nsz arcp contract afn float [ %47, %51 ], [ 1.000000e+00, %49 ], [ 0.000000e+00, %43 ]
  store float %53, ptr %45, align 4, !tbaa !58
  %54 = or disjoint i64 %44, 1
  %55 = getelementptr inbounds nuw float, ptr %3, i64 %54
  %56 = load float, ptr %55, align 4, !tbaa !58
  %57 = fmul reassoc nsz arcp contract afn float %56, %25
  %58 = fcmp reassoc nsz arcp contract afn ult float %57, 0.000000e+00
  br i1 %58, label %62, label %59

59:                                               ; preds = %52
  %60 = fcmp reassoc nsz arcp contract afn ugt float %57, 1.000000e+00
  br i1 %60, label %62, label %61

61:                                               ; preds = %59
  br label %62

62:                                               ; preds = %52, %61, %59
  %63 = phi reassoc nsz arcp contract afn float [ %57, %61 ], [ 1.000000e+00, %59 ], [ 0.000000e+00, %52 ]
  store float %63, ptr %55, align 4, !tbaa !58
  %indvars.iv.next62 = add nuw nsw i64 %indvars.iv61, 1
  %exitcond65.not = icmp eq i64 %indvars.iv.next62, %wide.trip.count
  br i1 %exitcond65.not, label %42, label %43
}